; Function Attrs: mustprogress uwtable
define noundef double @_ZNK8QuantLib19AveragingRatePricer11swapletRateEv(ptr nocapture noundef nonnull readonly align 8 dereferenceable(40) %this) unnamed_addr #8 align 2 {
entry:
  %subPeriodFixings_ = getelementptr inbounds nuw i8, ptr %this, i64 16
  %_M_finish.i = getelementptr inbounds nuw i8, ptr %this, i64 24
  %0 = load ptr, ptr %_M_finish.i, align 8, !tbaa !108
  %1 = load ptr, ptr %subPeriodFixings_, align 8, !tbaa !109
  %coupon_ = getelementptr inbounds nuw i8, ptr %this, i64 8
  %2 = load ptr, ptr %coupon_, align 8, !tbaa !123
  %cmp6.not = icmp eq ptr %0, %1
  br i1 %cmp6.not, label %for.cond.cleanup, label %for.body.lr.ph

for.body.lr.ph:                                   ; preds = %entry
  %sub.ptr.lhs.cast.i = ptrtoint ptr %0 to i64
  %sub.ptr.rhs.cast.i = ptrtoint ptr %1 to i64
  %sub.ptr.sub.i = sub i64 %sub.ptr.lhs.cast.i, %sub.ptr.rhs.cast.i
  %sub.ptr.div.i = ashr exact i64 %sub.ptr.sub.i, 3
  %dt_.i = getelementptr inbounds nuw i8, ptr %2, i64 232
  %3 = load ptr, ptr %dt_.i, align 8, !tbaa !109
  %umax = tail call i64 @llvm.umax.i64(i64 %sub.ptr.div.i, i64 1)
  br label %for.body

for.cond.cleanup:                                 ; preds = %for.body, %entry
  %aggregateFactor.0.lcssa = phi double [ 0.000000e+00, %entry ], [ %10, %for.body ]
  %call7 = tail call noundef double @_ZNK8QuantLib6Coupon13accrualPeriodEv(ptr noundef nonnull align 8 dereferenceable(88) %2)
  %div = fdiv double %aggregateFactor.0.lcssa, %call7
  %4 = load ptr, ptr %coupon_, align 8, !tbaa !123
  %gearing_.i = getelementptr inbounds nuw i8, ptr %4, i64 128
  %5 = load double, ptr %gearing_.i, align 8, !tbaa !169
  %spread_.i = getelementptr inbounds nuw i8, ptr %4, i64 136
  %6 = load double, ptr %spread_.i, align 8, !tbaa !170
  %7 = tail call double @llvm.fmuladd.f64(double %5, double %div, double %6)
  ret double %7

for.body:                                         ; preds = %for.body.lr.ph, %for.body
  %aggregateFactor.08 = phi double [ 0.000000e+00, %for.body.lr.ph ], [ %10, %for.body ]
  %i.07 = phi i64 [ 0, %for.body.lr.ph ], [ %inc, %for.body ]
  %add.ptr.i = getelementptr inbounds nuw double, ptr %1, i64 %i.07
  %8 = load double, ptr %add.ptr.i, align 8, !tbaa !117
  %add.ptr.i5 = getelementptr inbounds nuw double, ptr %3, i64 %i.07
  %9 = load double, ptr %add.ptr.i5, align 8, !tbaa !117
  %10 = tail call double @llvm.fmuladd.f64(double %8, double %9, double %aggregateFactor.08)
  %inc = add nuw i64 %i.07, 1
  %exitcond.not = icmp eq i64 %inc, %umax
  br i1 %exitcond.not, label %for.cond.cleanup, label %for.body, !llvm.loop !171
}